; Function Attrs: mustprogress nofree norecurse nosync nounwind willreturn memory(argmem: readwrite) uwtable
define dso_local noundef zeroext i1 @_ZN4Luau14AnyTypeSummary18FindReturnAncestry5visitEPNS_15AstStatFunctionE(ptr noundef nonnull align 8 captures(none) dereferenceable(40) initializes((8, 16)) %0, ptr noundef %1) unnamed_addr #12 align 2 {
  %3 = getelementptr inbounds nuw i8, ptr %0, i64 8
  store ptr %1, ptr %3, align 8, !tbaa !102
  %4 = getelementptr inbounds nuw i8, ptr %0, i64 32
  %5 = load i8, ptr %4, align 8, !tbaa !107, !range !200, !noundef !201
  %6 = trunc nuw i8 %5 to i1
  %7 = xor i1 %6, true
  ret i1 %7
}